target datalayout = "e-m:e-p270:32:32-p271:32:32-p272:64:64-i64:64-i128:128-f80:128-n8:16:32:64-S128"
target triple = "x86_64-pc-linux-gnu"

%struct._header_field_info = type { ptr, ptr, i32, i32, ptr, i64, ptr, i32, i32, i32, i32, ptr }
%struct._e_prefs = type { ptr, i32, %struct.color_t, %struct.color_t, %struct.color_t, %struct.color_t, %struct.color_t, %struct.color_t, %struct.color_t, i8, i32, ptr, i32, %struct.color_t, %struct.color_t, i32, %struct.color_t, %struct.color_t, i32, %struct.color_t, %struct.color_t, %struct.color_t, %struct.color_t, ptr, ptr, i8, i8, i8, i32, i32, i32, ptr, i32, ptr, i8, i8, i8, ptr, ptr, ptr, i32, i32, i32, i32, i8, i32, i32, i32, i32, i32, ptr, i8, i8, i8, i8, i8, ptr, ptr, ptr, ptr, ptr, ptr, ptr, ptr, ptr, i8, i8, i8, i8, i32, i8, i8, i8, ptr, i32, i8, i8, i32, i8, i8, i8, i32, i8, i32, i8, i8, i8, i32, i32, i32, ptr, i8, i8, i8, i8, i8, i8, i32, i32, i8, i8, i8, i8, i32, i32, i32, i32, i8, i8, i32, i8, i8, i32, i32, i8, i8, i8, i32, i8, i8, i8 }
%struct.color_t = type { i16, i16, i16 }
%struct._proto_node = type { ptr, ptr, ptr, ptr, ptr, ptr, ptr }
%struct.tree_data_t = type { ptr, i8, i8, i32, ptr, i32, i32 }
%struct.field_info = type { ptr, i32, i32, i32, i32, i32, i32, ptr, ptr, ptr, i32, i32 }
%struct._packet_info = type { ptr, ptr, i32, i32, %struct.nstime_t, %struct.nstime_t, %struct.nstime_t, i8, ptr, ptr, ptr, ptr, %struct._address, %struct._address, %struct._address, %struct._address, %struct._address, %struct._address, i32, ptr, i8, [3 x i8], %struct.anon, i32, i32, i32, i32, ptr, i8, ptr, ptr, i16, i16, i32, i32, i16, i32, i32, ptr, ptr, ptr, i8, i8, i16, i16, i16, i32, i16, i16, ptr, ptr, ptr, ptr, ptr, i32, i32 }
%struct.nstime_t = type { i64, i32 }
%struct._address = type { i32, i32, ptr, ptr }
%struct.anon = type { i8, [3 x i8] }

@num_tree_types = global i32 1, align 4
@.str.1 = private unnamed_addr constant [13 x i8] c"epan/proto.c\00", align 1
@prefs = external global %struct._e_prefs, align 8
@.str.62 = private unnamed_addr constant [29 x i8] c"%s:%u: failed assertion \22%s\22\00", align 1
@.str.275 = private unnamed_addr constant [112 x i8] c"Maximum tree depth %d exceeded for \22%s\22 - \22%s\22 (%s:%u) (Maximum depth can be increased in advanced preferences)\00", align 1
@__func__.proto_tree_add_fake_node = private unnamed_addr constant [25 x i8] c"proto_tree_add_fake_node\00", align 1
@.str.276 = private unnamed_addr constant [47 x i8] c"\22%s\22 - \22%s\22 tfi->tree_type: %d invalid (%s:%u)\00", align 1
@.str.277 = private unnamed_addr constant [28 x i8] c"sibling->next == ((void*)0)\00", align 1

; Function Attrs: null_pointer_is_valid sspstrong uwtable
define internal ptr @proto_tree_add_fake_node(ptr noundef %0, ptr noundef %1) #0 {
  %3 = alloca ptr, align 8
  %4 = alloca ptr, align 8
  %5 = alloca ptr, align 8
  %6 = alloca ptr, align 8
  %7 = alloca ptr, align 8
  %8 = alloca ptr, align 8
  %9 = alloca i32, align 4
  %10 = alloca i32, align 4
  %11 = alloca i32, align 4
  store ptr %0, ptr %3, align 8
  store ptr %1, ptr %4, align 8
  call void @llvm.lifetime.start.p0(i64 8, ptr %5) #24
  call void @llvm.lifetime.start.p0(i64 8, ptr %6) #24
  call void @llvm.lifetime.start.p0(i64 8, ptr %7) #24
  call void @llvm.lifetime.start.p0(i64 8, ptr %8) #24
  call void @llvm.lifetime.start.p0(i64 4, ptr %9) #24
  store i32 1, ptr %9, align 4
  br label %12

12:                                               ; preds = %2
  br label %13

13:                                               ; preds = %12
  br label %14

14:                                               ; preds = %13
  %15 = load ptr, ptr %3, align 8
  %16 = getelementptr inbounds nuw %struct._proto_node, ptr %15, i32 0, i32 0
  %17 = load ptr, ptr %16, align 8
  %18 = icmp eq ptr %17, null
  br i1 %18, label %19, label %60

19:                                               ; preds = %14
  %20 = load ptr, ptr %3, align 8
  store ptr %20, ptr %6, align 8
  br label %21

21:                                               ; preds = %55, %19
  %22 = load ptr, ptr %6, align 8
  %23 = icmp ne ptr %22, null
  br i1 %23, label %24, label %59

24:                                               ; preds = %21
  %25 = load i32, ptr %9, align 4
  %26 = add i32 %25, 1
  store i32 %26, ptr %9, align 4
  call void @llvm.lifetime.start.p0(i64 4, ptr %10) #24
  %27 = load i32, ptr %9, align 4
  %28 = load i32, ptr getelementptr inbounds nuw (%struct._e_prefs, ptr @prefs, i32 0, i32 43), align 4
  %29 = icmp ugt i32 %27, %28
  br i1 %29, label %30, label %31

30:                                               ; preds = %24
  store i32 1, ptr %10, align 4
  br label %32

31:                                               ; preds = %24
  store i32 0, ptr %10, align 4
  br label %32

32:                                               ; preds = %31, %30
  %33 = load i32, ptr %10, align 4
  store i32 %33, ptr %11, align 4
  call void @llvm.lifetime.end.p0(i64 4, ptr %10) #24
  %34 = load i32, ptr %11, align 4
  %35 = sext i32 %34 to i64
  %36 = call i64 @llvm.expect.i64(i64 %35, i64 0)
  %37 = icmp ne i64 %36, 0
  br i1 %37, label %38, label %54

38:                                               ; preds = %32
  %39 = load ptr, ptr %3, align 8
  %40 = getelementptr inbounds nuw %struct._proto_node, ptr %39, i32 0, i32 6
  %41 = load ptr, ptr %40, align 8
  %42 = getelementptr inbounds nuw %struct.tree_data_t, ptr %41, i32 0, i32 4
  %43 = load ptr, ptr %42, align 8
  %44 = getelementptr inbounds nuw %struct._packet_info, ptr %43, i32 0, i32 51
  %45 = load ptr, ptr %44, align 8
  %46 = load i32, ptr getelementptr inbounds nuw (%struct._e_prefs, ptr @prefs, i32 0, i32 43), align 4
  %47 = load ptr, ptr %4, align 8
  %48 = getelementptr inbounds nuw %struct._header_field_info, ptr %47, i32 0, i32 0
  %49 = load ptr, ptr %48, align 8
  %50 = load ptr, ptr %4, align 8
  %51 = getelementptr inbounds nuw %struct._header_field_info, ptr %50, i32 0, i32 1
  %52 = load ptr, ptr %51, align 8
  %53 = call noalias ptr (ptr, ptr, ...) @wmem_strdup_printf(ptr noundef %45, ptr noundef @.str.275, i32 noundef %46, ptr noundef %49, ptr noundef %52, ptr noundef @__func__.proto_tree_add_fake_node, i32 noundef 6393)
  call void @except_throw(i64 noundef 1, i64 noundef 6, ptr noundef %53) #27
  unreachable

54:                                               ; preds = %32
  br label %55

55:                                               ; preds = %54
  %56 = load ptr, ptr %6, align 8
  %57 = getelementptr inbounds nuw %struct._proto_node, ptr %56, i32 0, i32 3
  %58 = load ptr, ptr %57, align 8
  store ptr %58, ptr %6, align 8
  br label %21, !llvm.loop !15

59:                                               ; preds = %21
  br label %60

60:                                               ; preds = %59, %14
  %61 = load ptr, ptr %3, align 8
  store ptr %61, ptr %6, align 8
  %62 = load ptr, ptr %6, align 8
  %63 = getelementptr inbounds nuw %struct._proto_node, ptr %62, i32 0, i32 5
  %64 = load ptr, ptr %63, align 8
  store ptr %64, ptr %8, align 8
  %65 = load ptr, ptr %8, align 8
  %66 = icmp ne ptr %65, null
  br i1 %66, label %67, label %88

67:                                               ; preds = %60
  %68 = load ptr, ptr %8, align 8
  %69 = getelementptr inbounds nuw %struct.field_info, ptr %68, i32 0, i32 5
  %70 = load i32, ptr %69, align 8
  %71 = icmp slt i32 %70, 0
  br i1 %71, label %78, label %72

72:                                               ; preds = %67
  %73 = load ptr, ptr %8, align 8
  %74 = getelementptr inbounds nuw %struct.field_info, ptr %73, i32 0, i32 5
  %75 = load i32, ptr %74, align 8
  %76 = load i32, ptr @num_tree_types, align 4
  %77 = icmp sge i32 %75, %76
  br i1 %77, label %78, label %88

78:                                               ; preds = %72, %67
  %79 = load ptr, ptr %4, align 8
  %80 = getelementptr inbounds nuw %struct._header_field_info, ptr %79, i32 0, i32 0
  %81 = load ptr, ptr %80, align 8
  %82 = load ptr, ptr %4, align 8
  %83 = getelementptr inbounds nuw %struct._header_field_info, ptr %82, i32 0, i32 1
  %84 = load ptr, ptr %83, align 8
  %85 = load ptr, ptr %8, align 8
  %86 = getelementptr inbounds nuw %struct.field_info, ptr %85, i32 0, i32 5
  %87 = load i32, ptr %86, align 8
  call void (ptr, ...) @proto_report_dissector_bug(ptr noundef @.str.276, ptr noundef %81, ptr noundef %84, i32 noundef %87, ptr noundef @.str.1, i32 noundef 6411) #27
  unreachable

88:                                               ; preds = %72, %60
  %89 = load ptr, ptr %3, align 8
  %90 = getelementptr inbounds nuw %struct._proto_node, ptr %89, i32 0, i32 6
  %91 = load ptr, ptr %90, align 8
  %92 = getelementptr inbounds nuw %struct.tree_data_t, ptr %91, i32 0, i32 4
  %93 = load ptr, ptr %92, align 8
  %94 = getelementptr inbounds nuw %struct._packet_info, ptr %93, i32 0, i32 51
  %95 = load ptr, ptr %94, align 8
  %96 = call noalias ptr @wmem_alloc(ptr noundef %95, i64 noundef 56) #30
  store ptr %96, ptr %5, align 8
  %97 = load ptr, ptr %5, align 8
  %98 = getelementptr inbounds nuw %struct._proto_node, ptr %97, i32 0, i32 0
  store ptr null, ptr %98, align 8
  %99 = load ptr, ptr %5, align 8
  %100 = getelementptr inbounds nuw %struct._proto_node, ptr %99, i32 0, i32 1
  store ptr null, ptr %100, align 8
  %101 = load ptr, ptr %5, align 8
  %102 = getelementptr inbounds nuw %struct._proto_node, ptr %101, i32 0, i32 2
  store ptr null, ptr %102, align 8
  %103 = load ptr, ptr %6, align 8
  %104 = load ptr, ptr %5, align 8
  %105 = getelementptr inbounds nuw %struct._proto_node, ptr %104, i32 0, i32 3
  store ptr %103, ptr %105, align 8
  %106 = load ptr, ptr %4, align 8
  %107 = load ptr, ptr %5, align 8
  %108 = getelementptr inbounds nuw %struct._proto_node, ptr %107, i32 0, i32 4
  store ptr %106, ptr %108, align 8
  %109 = load ptr, ptr %5, align 8
  %110 = getelementptr inbounds nuw %struct._proto_node, ptr %109, i32 0, i32 5
  store ptr null, ptr %110, align 8
  %111 = load ptr, ptr %3, align 8
  %112 = getelementptr inbounds nuw %struct._proto_node, ptr %111, i32 0, i32 6
  %113 = load ptr, ptr %112, align 8
  %114 = load ptr, ptr %5, align 8
  %115 = getelementptr inbounds nuw %struct._proto_node, ptr %114, i32 0, i32 6
  store ptr %113, ptr %115, align 8
  %116 = load ptr, ptr %6, align 8
  %117 = getelementptr inbounds nuw %struct._proto_node, ptr %116, i32 0, i32 1
  %118 = load ptr, ptr %117, align 8
  %119 = icmp ne ptr %118, null
  br i1 %119, label %120, label %135

120:                                              ; preds = %88
  %121 = load ptr, ptr %6, align 8
  %122 = getelementptr inbounds nuw %struct._proto_node, ptr %121, i32 0, i32 1
  %123 = load ptr, ptr %122, align 8
  store ptr %123, ptr %7, align 8
  %124 = load ptr, ptr %7, align 8
  %125 = getelementptr inbounds nuw %struct._proto_node, ptr %124, i32 0, i32 2
  %126 = load ptr, ptr %125, align 8
  %127 = icmp eq ptr %126, null
  br i1 %127, label %128, label %129

128:                                              ; preds = %120
  br label %131

129:                                              ; preds = %120
  call void (ptr, ...) @proto_report_dissector_bug(ptr noundef @.str.62, ptr noundef @.str.1, i32 noundef 6424, ptr noundef @.str.277) #27
  unreachable

130:                                              ; No predecessors!
  br label %131

131:                                              ; preds = %130, %128
  %132 = load ptr, ptr %5, align 8
  %133 = load ptr, ptr %7, align 8
  %134 = getelementptr inbounds nuw %struct._proto_node, ptr %133, i32 0, i32 2
  store ptr %132, ptr %134, align 8
  br label %139

135:                                              ; preds = %88
  %136 = load ptr, ptr %5, align 8
  %137 = load ptr, ptr %6, align 8
  %138 = getelementptr inbounds nuw %struct._proto_node, ptr %137, i32 0, i32 0
  store ptr %136, ptr %138, align 8
  br label %139

139:                                              ; preds = %135, %131
  %140 = load ptr, ptr %5, align 8
  %141 = load ptr, ptr %6, align 8
  %142 = getelementptr inbounds nuw %struct._proto_node, ptr %141, i32 0, i32 1
  store ptr %140, ptr %142, align 8
  br label %143

143:                                              ; preds = %139
  br label %144

144:                                              ; preds = %143
  br label %145

145:                                              ; preds = %144
  %146 = load ptr, ptr %5, align 8
  call void @llvm.lifetime.end.p0(i64 4, ptr %9) #24
  call void @llvm.lifetime.end.p0(i64 8, ptr %8) #24
  call void @llvm.lifetime.end.p0(i64 8, ptr %7) #24
  call void @llvm.lifetime.end.p0(i64 8, ptr %6) #24
  call void @llvm.lifetime.end.p0(i64 8, ptr %5) #24
  ret ptr %146
}