; Function Attrs: null_pointer_is_valid sspstrong uwtable
define internal fastcc noundef ptr @proto_tree_add_fake_node(ptr noundef %0, ptr noundef nonnull %1) unnamed_addr #0 {
  %3 = load ptr, ptr %0, align 8
  %4 = icmp ne ptr %3, null
  %.not49 = icmp eq ptr %0, null
  %or.cond52 = or i1 %4, %.not49
  br i1 %or.cond52, label %.loopexit, label %.lr.ph

.lr.ph:                                           ; preds = %2
  %5 = load i32, ptr getelementptr inbounds nuw (i8, ptr @prefs, i64 236), align 4
  br label %6

6:                                                ; preds = %.lr.ph, %19
  %.051 = phi ptr [ %0, %.lr.ph ], [ %21, %19 ]
  %.04050 = phi i32 [ 1, %.lr.ph ], [ %7, %19 ]
  %7 = add i32 %.04050, 1
  %.not48 = icmp ugt i32 %7, %5
  br i1 %.not48, label %8, label %19, !prof !15

8:                                                ; preds = %6
  %9 = getelementptr inbounds nuw i8, ptr %0, i64 48
  %10 = load ptr, ptr %9, align 8
  %11 = getelementptr inbounds nuw i8, ptr %10, i64 16
  %12 = load ptr, ptr %11, align 8
  %13 = getelementptr inbounds nuw i8, ptr %12, i64 408
  %14 = load ptr, ptr %13, align 8
  %15 = load ptr, ptr %1, align 8
  %16 = getelementptr inbounds nuw i8, ptr %1, i64 8
  %17 = load ptr, ptr %16, align 8
  %18 = tail call noalias ptr (ptr, ptr, ...) @wmem_strdup_printf(ptr noundef %14, ptr noundef nonnull @.str.275, i32 noundef %5, ptr noundef %15, ptr noundef %17, ptr noundef nonnull @__func__.proto_tree_add_fake_node, i32 noundef 6393)
  tail call void @except_throw(i64 noundef 1, i64 noundef 6, ptr noundef %18) #37
  unreachable

19:                                               ; preds = %6
  %20 = getelementptr inbounds nuw i8, ptr %.051, i64 24
  %21 = load ptr, ptr %20, align 8
  %.not = icmp eq ptr %21, null
  br i1 %.not, label %.loopexit, label %6, !llvm.loop !16

.loopexit:                                        ; preds = %19, %2
  %22 = getelementptr inbounds nuw i8, ptr %0, i64 40
  %23 = load ptr, ptr %22, align 8
  %.not44 = icmp eq ptr %23, null
  br i1 %.not44, label %33, label %24

24:                                               ; preds = %.loopexit
  %25 = getelementptr inbounds nuw i8, ptr %23, i64 24
  %26 = load i32, ptr %25, align 8
  %27 = icmp sgt i32 %26, -1
  %28 = load i32, ptr @num_tree_types, align 4
  %.not45 = icmp slt i32 %26, %28
  %or.cond = select i1 %27, i1 %.not45, i1 false
  br i1 %or.cond, label %33, label %29

29:                                               ; preds = %24
  %30 = load ptr, ptr %1, align 8
  %31 = getelementptr inbounds nuw i8, ptr %1, i64 8
  %32 = load ptr, ptr %31, align 8
  tail call void (ptr, ...) @proto_report_dissector_bug(ptr noundef nonnull @.str.276, ptr noundef %30, ptr noundef %32, i32 noundef %26, ptr noundef nonnull @.str.1, i32 noundef 6411) #37
  unreachable

33:                                               ; preds = %24, %.loopexit
  %34 = getelementptr inbounds nuw i8, ptr %0, i64 48
  %35 = load ptr, ptr %34, align 8
  %36 = getelementptr inbounds nuw i8, ptr %35, i64 16
  %37 = load ptr, ptr %36, align 8
  %38 = getelementptr inbounds nuw i8, ptr %37, i64 408
  %39 = load ptr, ptr %38, align 8
  %40 = tail call noalias dereferenceable_or_null(56) ptr @wmem_alloc(ptr noundef %39, i64 noundef 56) #42
  %41 = getelementptr inbounds nuw i8, ptr %40, i64 24
  tail call void @llvm.memset.p0.i64(ptr noundef align 8 dereferenceable(24) %40, i8 0, i64 24, i1 false)
  store ptr %0, ptr %41, align 8
  %42 = getelementptr inbounds nuw i8, ptr %40, i64 32
  store ptr %1, ptr %42, align 8
  %43 = getelementptr inbounds nuw i8, ptr %40, i64 40
  store ptr null, ptr %43, align 8
  %44 = load ptr, ptr %34, align 8
  %45 = getelementptr inbounds nuw i8, ptr %40, i64 48
  store ptr %44, ptr %45, align 8
  %46 = getelementptr inbounds nuw i8, ptr %0, i64 8
  %47 = load ptr, ptr %46, align 8
  %.not46 = icmp eq ptr %47, null
  br i1 %.not46, label %54, label %48

48:                                               ; preds = %33
  %49 = getelementptr inbounds nuw i8, ptr %47, i64 16
  %50 = load ptr, ptr %49, align 8
  %51 = icmp eq ptr %50, null
  br i1 %51, label %53, label %52

52:                                               ; preds = %48
  tail call void (ptr, ...) @proto_report_dissector_bug(ptr noundef nonnull @.str.62, ptr noundef nonnull @.str.1, i32 noundef 6424, ptr noundef nonnull @.str.277) #37
  unreachable

53:                                               ; preds = %48
  store ptr %40, ptr %49, align 8
  br label %55

54:                                               ; preds = %33
  store ptr %40, ptr %0, align 8
  br label %55

55:                                               ; preds = %54, %53
  store ptr %40, ptr %46, align 8
  ret ptr %40
}